target datalayout = "e-m:e-p270:32:32-p271:32:32-p272:64:64-i64:64-i128:128-f80:128-n8:16:32:64-S128"
target triple = "x86_64-pc-linux-gnu"

@leap_year_yday_offset = internal constant [12 x i16] [i16 -1, i16 30, i16 59, i16 90, i16 120, i16 151, i16 181, i16 212, i16 243, i16 273, i16 304, i16 334], align 16
@common_year_yday_offset = internal constant [12 x i16] [i16 -1, i16 30, i16 58, i16 89, i16 119, i16 150, i16 180, i16 211, i16 242, i16 272, i16 303, i16 333], align 16

; Function Attrs: nounwind sspstrong uwtable
define internal i32 @leap_year_p(i64 noundef %0) #0 {
  %2 = alloca i32, align 4
  %3 = alloca i64, align 8
  %4 = alloca i64, align 8
  %5 = alloca i32, align 4
  %6 = alloca i64, align 8
  store i64 %0, ptr %3, align 8, !tbaa !11
  call void @llvm.lifetime.start.p0(i64 8, ptr %4) #22
  %7 = load i64, ptr %3, align 8, !tbaa !11
  %8 = icmp sge i64 %7, 0
  %9 = xor i1 %8, true
  %10 = xor i1 %9, true
  %11 = zext i1 %10 to i32
  %12 = sext i32 %11 to i64
  %13 = call i64 @llvm.expect.i64(i64 %12, i64 1)
  %14 = icmp ne i64 %13, 0
  br i1 %14, label %15, label %17

15:                                               ; preds = %1
  %16 = load i64, ptr %3, align 8, !tbaa !11
  br label %20

17:                                               ; preds = %1
  %18 = load i64, ptr %3, align 8, !tbaa !11
  %19 = sub i64 0, %18
  br label %20

20:                                               ; preds = %17, %15
  %21 = phi i64 [ %16, %15 ], [ %19, %17 ]
  store i64 %21, ptr %4, align 8, !tbaa !11
  %22 = load i64, ptr %4, align 8, !tbaa !11
  %23 = urem i64 %22, 4
  %24 = icmp ne i64 %23, 0
  %25 = xor i1 %24, true
  %26 = xor i1 %25, true
  %27 = zext i1 %26 to i32
  %28 = sext i32 %27 to i64
  %29 = call i64 @llvm.expect.i64(i64 %28, i64 1)
  %30 = icmp ne i64 %29, 0
  br i1 %30, label %31, label %32

31:                                               ; preds = %20
  store i32 0, ptr %2, align 4
  store i32 1, ptr %5, align 4
  br label %52

32:                                               ; preds = %20
  call void @llvm.lifetime.start.p0(i64 8, ptr %6) #22
  %33 = load i64, ptr %4, align 8, !tbaa !11
  %34 = udiv i64 %33, 100
  store i64 %34, ptr %6, align 8, !tbaa !11
  %35 = load i64, ptr %4, align 8, !tbaa !11
  %36 = load i64, ptr %6, align 8, !tbaa !11
  %37 = mul i64 %36, 100
  %38 = icmp ne i64 %35, %37
  %39 = xor i1 %38, true
  %40 = xor i1 %39, true
  %41 = zext i1 %40 to i32
  %42 = sext i32 %41 to i64
  %43 = call i64 @llvm.expect.i64(i64 %42, i64 1)
  %44 = icmp ne i64 %43, 0
  br i1 %44, label %45, label %46

45:                                               ; preds = %32
  store i32 1, ptr %2, align 4
  store i32 1, ptr %5, align 4
  br label %51

46:                                               ; preds = %32
  %47 = load i64, ptr %6, align 8, !tbaa !11
  %48 = urem i64 %47, 4
  %49 = icmp eq i64 %48, 0
  %50 = zext i1 %49 to i32
  store i32 %50, ptr %2, align 4
  store i32 1, ptr %5, align 4
  br label %51

51:                                               ; preds = %46, %45
  call void @llvm.lifetime.end.p0(i64 8, ptr %6) #22
  br label %52

52:                                               ; preds = %51, %31
  call void @llvm.lifetime.end.p0(i64 8, ptr %4) #22
  %53 = load i32, ptr %2, align 4
  ret i32 %53
}

; Function Attrs: nounwind sspstrong uwtable
define internal i32 @calc_tm_yday(i64 noundef %0, i32 noundef %1, i32 noundef %2) #0 {
  %4 = alloca i64, align 8
  %5 = alloca i32, align 4
  %6 = alloca i32, align 4
  %7 = alloca i32, align 4
  %8 = alloca i32, align 4
  store i64 %0, ptr %4, align 8, !tbaa !11
  store i32 %1, ptr %5, align 4, !tbaa !20
  store i32 %2, ptr %6, align 4, !tbaa !20
  call void @llvm.lifetime.start.p0(i64 4, ptr %7) #22
  %9 = load i64, ptr %4, align 8, !tbaa !11
  %10 = icmp slt i64 %9, 0
  br i1 %10, label %11, label %18

11:                                               ; preds = %3
  %12 = load i64, ptr %4, align 8, !tbaa !11
  %13 = add i64 %12, 1
  %14 = sub i64 0, %13
  %15 = srem i64 %14, 400
  %16 = sub i64 400, %15
  %17 = sub i64 %16, 1
  br label %21

18:                                               ; preds = %3
  %19 = load i64, ptr %4, align 8, !tbaa !11
  %20 = srem i64 %19, 400
  br label %21

21:                                               ; preds = %18, %11
  %22 = phi i64 [ %17, %11 ], [ %20, %18 ]
  %23 = trunc i64 %22 to i32
  store i32 %23, ptr %7, align 4, !tbaa !20
  call void @llvm.lifetime.start.p0(i64 4, ptr %8) #22
  %24 = load i32, ptr %6, align 4, !tbaa !20
  store i32 %24, ptr %8, align 4, !tbaa !20
  %25 = load i32, ptr %7, align 4, !tbaa !20
  %26 = add i32 %25, 1900
  %27 = sext i32 %26 to i64
  %28 = call i32 @leap_year_p(i64 noundef %27)
  %29 = icmp ne i32 %28, 0
  br i1 %29, label %30, label %38

30:                                               ; preds = %21
  %31 = load i32, ptr %5, align 4, !tbaa !20
  %32 = sext i32 %31 to i64
  %33 = getelementptr [12 x i16], ptr @leap_year_yday_offset, i64 0, i64 %32
  %34 = load i16, ptr %33, align 2, !tbaa !99
  %35 = sext i16 %34 to i32
  %36 = load i32, ptr %8, align 4, !tbaa !20
  %37 = add i32 %36, %35
  store i32 %37, ptr %8, align 4, !tbaa !20
  br label %46

38:                                               ; preds = %21
  %39 = load i32, ptr %5, align 4, !tbaa !20
  %40 = sext i32 %39 to i64
  %41 = getelementptr [12 x i16], ptr @common_year_yday_offset, i64 0, i64 %40
  %42 = load i16, ptr %41, align 2, !tbaa !99
  %43 = sext i16 %42 to i32
  %44 = load i32, ptr %8, align 4, !tbaa !20
  %45 = add i32 %44, %43
  store i32 %45, ptr %8, align 4, !tbaa !20
  br label %46

46:                                               ; preds = %38, %30
  %47 = load i32, ptr %8, align 4, !tbaa !20
  call void @llvm.lifetime.end.p0(i64 4, ptr %8) #22
  call void @llvm.lifetime.end.p0(i64 4, ptr %7) #22
  ret i32 %47
}