; Function Attrs: mustprogress nofree norecurse nosync nounwind sspstrong willreturn memory(none) uwtable
define internal fastcc i32 @calc_tm_yday(i64 noundef range(i64 -2147483648, 2147483648) %0, i32 noundef %1, i32 noundef %2) unnamed_addr #13 {
  %4 = icmp slt i64 %0, 0
  %5 = trunc nsw i64 %0 to i32
  br i1 %4, label %6, label %8

6:                                                ; preds = %3
  %.lhs.trunc = xor i32 %5, -1
  %7 = urem i32 %.lhs.trunc, 400
  %narrow = sub nuw nsw i32 399, %7
  br label %10

8:                                                ; preds = %3
  %9 = urem i32 %5, 400
  br label %10

10:                                               ; preds = %8, %6
  %.in = phi i32 [ %narrow, %6 ], [ %9, %8 ]
  %narrow22 = add nuw nsw i32 %.in, 1900
  %11 = zext nneg i32 %narrow22 to i64
  %12 = and i64 %11, 3
  %.not.i = icmp eq i64 %12, 0
  br i1 %.not.i, label %15, label %leap_year_p.exit.thread, !prof !14

leap_year_p.exit.thread:                          ; preds = %10
  %13 = sext i32 %1 to i64
  %14 = getelementptr [12 x i16], ptr @common_year_yday_offset, i64 0, i64 %13
  br label %24

15:                                               ; preds = %10
  %.lhs.trunc18 = trunc nuw nsw i32 %narrow22 to i16
  %16 = udiv i16 %.lhs.trunc18, 100
  %.zext19 = zext nneg i16 %16 to i64
  %17 = mul nuw nsw i64 %.zext19, 100
  %.not11.i = icmp eq i64 %17, %11
  br i1 %.not11.i, label %leap_year_p.exit, label %leap_year_p.exit.thread14, !prof !14

leap_year_p.exit.thread14:                        ; preds = %15
  %18 = sext i32 %1 to i64
  %19 = getelementptr [12 x i16], ptr @leap_year_yday_offset, i64 0, i64 %18
  br label %24

leap_year_p.exit:                                 ; preds = %15
  %20 = and i64 %.zext19, 3
  %.not = icmp eq i64 %20, 0
  %21 = sext i32 %1 to i64
  %22 = getelementptr [12 x i16], ptr @leap_year_yday_offset, i64 0, i64 %21
  %23 = getelementptr [12 x i16], ptr @common_year_yday_offset, i64 0, i64 %21
  %spec.select = select i1 %.not, ptr %22, ptr %23
  br label %24

24:                                               ; preds = %leap_year_p.exit, %leap_year_p.exit.thread, %leap_year_p.exit.thread14
  %25 = phi ptr [ %19, %leap_year_p.exit.thread14 ], [ %14, %leap_year_p.exit.thread ], [ %spec.select, %leap_year_p.exit ]
  %.pn.in = load i16, ptr %25, align 2, !tbaa !119
  %.pn = sext i16 %.pn.in to i32
  %.0 = add i32 %2, %.pn
  ret i32 %.0
}